target datalayout = "e-m:e-p270:32:32-p271:32:32-p272:64:64-i64:64-i128:128-f80:128-n8:16:32:64-S128"
target triple = "x86_64-pc-linux-gnu"

%struct.pmix_proc = type { [256 x i8], i32 }
%struct.pmix_list_t = type { %struct.pmix_object_t, %struct.pmix_list_item_t, i64 }
%struct.pmix_object_t = type { %union.pthread_mutex_t, ptr, i32, %struct.pmix_tma }
%union.pthread_mutex_t = type { %struct.__pthread_mutex_s }
%struct.__pthread_mutex_s = type { i32, i32, i32, i32, i32, i16, i16, %struct.__pthread_internal_list }
%struct.__pthread_internal_list = type { ptr, ptr }
%struct.pmix_tma = type { ptr, ptr, ptr, ptr, ptr, ptr, ptr, ptr }
%struct.pmix_list_item_t = type { %struct.pmix_object_t, ptr, ptr, i32 }
%struct.prte_job_t = type { %struct.pmix_list_item_t, i32, ptr, ptr, [256 x i8], ptr, i32, i32, ptr, ptr, i32, i32, i32, i32, ptr, ptr, ptr, i32, i32, i32, i32, i32, i32, i32, %struct.pmix_proc, i32, i16, %struct.pmix_list_t, %struct.pmix_data_buffer, %struct.pmix_list_t, [256 x i8], i32, ptr, %struct.pmix_cli_result_t }
%struct.pmix_data_buffer = type { ptr, ptr, ptr, i64, i64 }
%struct.pmix_cli_result_t = type { %struct.pmix_object_t, %struct.pmix_list_t, ptr }
%struct.pmix_pointer_array_t = type { %struct.pmix_object_t, i32, i32, i32, i32, i32, ptr, ptr }
%struct.prte_proc_t = type { %struct.pmix_list_item_t, %struct.pmix_proc, i32, i32, i16, i16, i32, i16, i32, i32, i32, i32, ptr, ptr, ptr, ptr, i16, %struct.pmix_list_t }

@.str.2 = private unnamed_addr constant [37 x i8] c"PMIX ERROR: %s in file %s at line %d\00", align 1
@.str.3 = private unnamed_addr constant [15 x i8] c"errmgr_prted.c\00", align 1
@prte_local_children = external global ptr, align 8

; Function Attrs: inlinehint nounwind uwtable
define internal ptr @pmix_pointer_array_get_item(ptr noundef %0, i32 noundef %1) #3 {
  %3 = alloca ptr, align 8
  %4 = alloca ptr, align 8
  %5 = alloca i32, align 4
  %6 = alloca ptr, align 8
  %7 = alloca i32, align 4
  store ptr %0, ptr %4, align 8, !tbaa !76
  store i32 %1, ptr %5, align 4, !tbaa !9
  call void @llvm.lifetime.start.p0(i64 8, ptr %6) #12
  %8 = load i32, ptr %5, align 4, !tbaa !9
  %9 = icmp sgt i32 0, %8
  br i1 %9, label %16, label %10

10:                                               ; preds = %2
  %11 = load ptr, ptr %4, align 8, !tbaa !76
  %12 = getelementptr inbounds nuw %struct.pmix_pointer_array_t, ptr %11, i32 0, i32 3
  %13 = load i32, ptr %12, align 8, !tbaa !77
  %14 = load i32, ptr %5, align 4, !tbaa !9
  %15 = icmp sle i32 %13, %14
  br label %16

16:                                               ; preds = %10, %2
  %17 = phi i1 [ true, %2 ], [ %15, %10 ]
  %18 = xor i1 %17, true
  %19 = xor i1 %18, true
  %20 = zext i1 %19 to i32
  %21 = sext i32 %20 to i64
  %22 = call i64 @llvm.expect.i64(i64 %21, i64 0)
  %23 = icmp ne i64 %22, 0
  br i1 %23, label %24, label %25

24:                                               ; preds = %16
  store ptr null, ptr %3, align 8
  store i32 1, ptr %7, align 4
  br label %34

25:                                               ; preds = %16
  %26 = load ptr, ptr %4, align 8, !tbaa !76
  %27 = getelementptr inbounds nuw %struct.pmix_pointer_array_t, ptr %26, i32 0, i32 7
  %28 = load ptr, ptr %27, align 8, !tbaa !110
  %29 = load i32, ptr %5, align 4, !tbaa !9
  %30 = sext i32 %29 to i64
  %31 = getelementptr inbounds ptr, ptr %28, i64 %30
  %32 = load ptr, ptr %31, align 8, !tbaa !13
  store ptr %32, ptr %6, align 8, !tbaa !13
  %33 = load ptr, ptr %6, align 8, !tbaa !13
  store ptr %33, ptr %3, align 8
  store i32 1, ptr %7, align 4
  br label %34

34:                                               ; preds = %25, %24
  call void @llvm.lifetime.end.p0(i64 8, ptr %6) #12
  %35 = load ptr, ptr %3, align 8
  ret ptr %35
}

; Function Attrs: nounwind uwtable
define internal i32 @pack_state_update(ptr noundef %0, ptr noundef %1) #0 {
  %3 = alloca i32, align 4
  %4 = alloca ptr, align 8
  %5 = alloca ptr, align 8
  %6 = alloca i32, align 4
  %7 = alloca i32, align 4
  %8 = alloca ptr, align 8
  %9 = alloca i32, align 4
  %10 = alloca i32, align 4
  store ptr %0, ptr %4, align 8, !tbaa !50
  store ptr %1, ptr %5, align 8, !tbaa !13
  call void @llvm.lifetime.start.p0(i64 4, ptr %6) #12
  call void @llvm.lifetime.start.p0(i64 4, ptr %7) #12
  call void @llvm.lifetime.start.p0(i64 8, ptr %8) #12
  call void @llvm.lifetime.start.p0(i64 4, ptr %9) #12
  store i32 -4, ptr %9, align 4, !tbaa !9
  %11 = load ptr, ptr %4, align 8, !tbaa !50
  %12 = load ptr, ptr %5, align 8, !tbaa !13
  %13 = getelementptr inbounds nuw %struct.prte_job_t, ptr %12, i32 0, i32 4
  %14 = call i32 @PMIx_Data_pack(ptr noundef null, ptr noundef %11, ptr noundef %13, i32 noundef 1, i16 noundef zeroext 60)
  store i32 %14, ptr %6, align 4, !tbaa !9
  %15 = load i32, ptr %6, align 4, !tbaa !9
  %16 = icmp ne i32 0, %15
  br i1 %16, label %17, label %28

17:                                               ; preds = %2
  br label %18

18:                                               ; preds = %17
  %19 = load i32, ptr %6, align 4, !tbaa !9
  %20 = icmp ne i32 -2, %19
  br i1 %20, label %21, label %24

21:                                               ; preds = %18
  %22 = load i32, ptr %6, align 4, !tbaa !9
  %23 = call ptr @PMIx_Error_string(i32 noundef %22)
  call void (i32, ptr, ...) @pmix_output(i32 noundef 0, ptr noundef @.str.2, ptr noundef %23, ptr noundef @.str.3, i32 noundef 764)
  br label %24

24:                                               ; preds = %21, %18
  br label %25

25:                                               ; preds = %24
  br label %26

26:                                               ; preds = %25
  %27 = load i32, ptr %6, align 4, !tbaa !9
  store i32 %27, ptr %3, align 4
  store i32 1, ptr %10, align 4
  br label %88

28:                                               ; preds = %2
  store i32 0, ptr %7, align 4, !tbaa !9
  br label %29

29:                                               ; preds = %68, %28
  %30 = load i32, ptr %7, align 4, !tbaa !9
  %31 = load ptr, ptr @prte_local_children, align 8, !tbaa !76
  %32 = getelementptr inbounds nuw %struct.pmix_pointer_array_t, ptr %31, i32 0, i32 3
  %33 = load i32, ptr %32, align 8, !tbaa !77
  %34 = icmp slt i32 %30, %33
  br i1 %34, label %35, label %71

35:                                               ; preds = %29
  %36 = load ptr, ptr @prte_local_children, align 8, !tbaa !76
  %37 = load i32, ptr %7, align 4, !tbaa !9
  %38 = call ptr @pmix_pointer_array_get_item(ptr noundef %36, i32 noundef %37)
  store ptr %38, ptr %8, align 8, !tbaa !65
  %39 = icmp eq ptr null, %38
  br i1 %39, label %40, label %41

40:                                               ; preds = %35
  br label %68

41:                                               ; preds = %35
  %42 = load ptr, ptr %8, align 8, !tbaa !65
  %43 = getelementptr inbounds nuw %struct.prte_proc_t, ptr %42, i32 0, i32 1
  %44 = getelementptr inbounds nuw %struct.pmix_proc, ptr %43, i32 0, i32 0
  %45 = getelementptr inbounds [256 x i8], ptr %44, i64 0, i64 0
  %46 = load ptr, ptr %5, align 8, !tbaa !13
  %47 = getelementptr inbounds nuw %struct.prte_job_t, ptr %46, i32 0, i32 4
  %48 = getelementptr inbounds [256 x i8], ptr %47, i64 0, i64 0
  %49 = call zeroext i1 @PMIx_Check_nspace(ptr noundef %45, ptr noundef %48)
  br i1 %49, label %50, label %67

50:                                               ; preds = %41
  %51 = load ptr, ptr %4, align 8, !tbaa !50
  %52 = load ptr, ptr %8, align 8, !tbaa !65
  %53 = call i32 @pack_state_for_proc(ptr noundef %51, ptr noundef %52)
  store i32 %53, ptr %6, align 4, !tbaa !9
  %54 = icmp ne i32 0, %53
  br i1 %54, label %55, label %66

55:                                               ; preds = %50
  br label %56

56:                                               ; preds = %55
  %57 = load i32, ptr %6, align 4, !tbaa !9
  %58 = icmp ne i32 -2, %57
  br i1 %58, label %59, label %62

59:                                               ; preds = %56
  %60 = load i32, ptr %6, align 4, !tbaa !9
  %61 = call ptr @PMIx_Error_string(i32 noundef %60)
  call void (i32, ptr, ...) @pmix_output(i32 noundef 0, ptr noundef @.str.2, ptr noundef %61, ptr noundef @.str.3, i32 noundef 774)
  br label %62

62:                                               ; preds = %59, %56
  br label %63

63:                                               ; preds = %62
  br label %64

64:                                               ; preds = %63
  %65 = load i32, ptr %6, align 4, !tbaa !9
  store i32 %65, ptr %3, align 4
  store i32 1, ptr %10, align 4
  br label %88

66:                                               ; preds = %50
  br label %67

67:                                               ; preds = %66, %41
  br label %68

68:                                               ; preds = %67, %40
  %69 = load i32, ptr %7, align 4, !tbaa !9
  %70 = add nsw i32 %69, 1
  store i32 %70, ptr %7, align 4, !tbaa !9
  br label %29, !llvm.loop !104

71:                                               ; preds = %29
  %72 = load ptr, ptr %4, align 8, !tbaa !50
  %73 = call i32 @PMIx_Data_pack(ptr noundef null, ptr noundef %72, ptr noundef %9, i32 noundef 1, i16 noundef zeroext 40)
  store i32 %73, ptr %6, align 4, !tbaa !9
  %74 = load i32, ptr %6, align 4, !tbaa !9
  %75 = icmp ne i32 0, %74
  br i1 %75, label %76, label %87

76:                                               ; preds = %71
  br label %77

77:                                               ; preds = %76
  %78 = load i32, ptr %6, align 4, !tbaa !9
  %79 = icmp ne i32 -2, %78
  br i1 %79, label %80, label %83

80:                                               ; preds = %77
  %81 = load i32, ptr %6, align 4, !tbaa !9
  %82 = call ptr @PMIx_Error_string(i32 noundef %81)
  call void (i32, ptr, ...) @pmix_output(i32 noundef 0, ptr noundef @.str.2, ptr noundef %82, ptr noundef @.str.3, i32 noundef 782)
  br label %83

83:                                               ; preds = %80, %77
  br label %84

84:                                               ; preds = %83
  br label %85

85:                                               ; preds = %84
  %86 = load i32, ptr %6, align 4, !tbaa !9
  store i32 %86, ptr %3, align 4
  store i32 1, ptr %10, align 4
  br label %88

87:                                               ; preds = %71
  store i32 0, ptr %3, align 4
  store i32 1, ptr %10, align 4
  br label %88

88:                                               ; preds = %87, %85, %64, %26
  call void @llvm.lifetime.end.p0(i64 4, ptr %9) #12
  call void @llvm.lifetime.end.p0(i64 8, ptr %8) #12
  call void @llvm.lifetime.end.p0(i64 4, ptr %7) #12
  call void @llvm.lifetime.end.p0(i64 4, ptr %6) #12
  %89 = load i32, ptr %3, align 4
  ret i32 %89
}