; Function Attrs: nounwind uwtable
define internal fastcc noundef i32 @pack_state_update(ptr noundef %0, ptr noundef %1) unnamed_addr #0 {
  %3 = alloca i32, align 4
  call void @llvm.lifetime.start.p0(i64 4, ptr nonnull %3) #13
  store i32 -4, ptr %3, align 4, !tbaa !29
  %4 = getelementptr inbounds nuw i8, ptr %1, i64 168
  %5 = tail call i32 @PMIx_Data_pack(ptr noundef null, ptr noundef %0, ptr noundef nonnull %4, i32 noundef 1, i16 noundef zeroext 60) #13
  switch i32 %5, label %10 [
    i32 0, label %.preheader
    i32 -2, label %.loopexit
  ]

.preheader:                                       ; preds = %2
  %6 = load ptr, ptr @prte_local_children, align 8, !tbaa !49
  %7 = getelementptr inbounds nuw i8, ptr %6, i64 128
  %8 = load i32, ptr %7, align 8, !tbaa !50
  %9 = icmp sgt i32 %8, 0
  br i1 %9, label %pmix_pointer_array_get_item.exit, label %._crit_edge

10:                                               ; preds = %2
  %11 = tail call ptr @PMIx_Error_string(i32 noundef %5) #13
  tail call void (i32, ptr, ...) @pmix_output(i32 noundef 0, ptr noundef nonnull @.str.2, ptr noundef %11, ptr noundef nonnull @.str.3, i32 noundef 764) #13
  br label %.loopexit

pmix_pointer_array_get_item.exit:                 ; preds = %.preheader, %25
  %indvars.iv = phi i64 [ %indvars.iv.next, %25 ], [ 0, %.preheader ]
  %12 = phi ptr [ %26, %25 ], [ %6, %.preheader ]
  %13 = getelementptr inbounds nuw i8, ptr %12, i64 152
  %14 = load ptr, ptr %13, align 8, !tbaa !53
  %15 = getelementptr inbounds nuw ptr, ptr %14, i64 %indvars.iv
  %16 = load ptr, ptr %15, align 8, !tbaa !54
  %17 = icmp eq ptr %16, null
  br i1 %17, label %25, label %18

18:                                               ; preds = %pmix_pointer_array_get_item.exit
  %19 = getelementptr inbounds nuw i8, ptr %16, i64 144
  %20 = tail call zeroext i1 @PMIx_Check_nspace(ptr noundef nonnull %19, ptr noundef nonnull %4) #13
  br i1 %20, label %21, label %25

21:                                               ; preds = %18
  %22 = tail call fastcc i32 @pack_state_for_proc(ptr noundef %0, ptr noundef %16)
  switch i32 %22, label %23 [
    i32 0, label %25
    i32 -2, label %.loopexit
  ]

23:                                               ; preds = %21
  %24 = tail call ptr @PMIx_Error_string(i32 noundef %22) #13
  tail call void (i32, ptr, ...) @pmix_output(i32 noundef 0, ptr noundef nonnull @.str.2, ptr noundef %24, ptr noundef nonnull @.str.3, i32 noundef 774) #13
  br label %.loopexit

25:                                               ; preds = %21, %18, %pmix_pointer_array_get_item.exit
  %indvars.iv.next = add nuw nsw i64 %indvars.iv, 1
  %26 = load ptr, ptr @prte_local_children, align 8, !tbaa !49
  %27 = getelementptr inbounds nuw i8, ptr %26, i64 128
  %28 = load i32, ptr %27, align 8, !tbaa !50
  %29 = sext i32 %28 to i64
  %30 = icmp slt i64 %indvars.iv.next, %29
  br i1 %30, label %pmix_pointer_array_get_item.exit, label %._crit_edge, !llvm.loop !103

._crit_edge:                                      ; preds = %25, %.preheader
  %31 = call i32 @PMIx_Data_pack(ptr noundef null, ptr noundef %0, ptr noundef nonnull %3, i32 noundef 1, i16 noundef zeroext 40) #13
  switch i32 %31, label %32 [
    i32 0, label %.loopexit
    i32 -2, label %.loopexit
  ]

32:                                               ; preds = %._crit_edge
  %33 = call ptr @PMIx_Error_string(i32 noundef %31) #13
  call void (i32, ptr, ...) @pmix_output(i32 noundef 0, ptr noundef nonnull @.str.2, ptr noundef %33, ptr noundef nonnull @.str.3, i32 noundef 782) #13
  br label %.loopexit

.loopexit:                                        ; preds = %21, %._crit_edge, %32, %._crit_edge, %23, %10, %2
  %.0 = phi i32 [ %5, %2 ], [ %5, %10 ], [ %22, %23 ], [ %31, %._crit_edge ], [ %31, %32 ], [ %31, %._crit_edge ], [ %22, %21 ]
  call void @llvm.lifetime.end.p0(i64 4, ptr nonnull %3) #13
  ret i32 %.0
}